; Function Attrs: mustprogress nofree norecurse nosync nounwind willreturn memory(argmem: write) uwtable
define dso_local void @_ZN30btGeneric6DofSpring2Constraint12enableSpringEib(ptr nocapture noundef nonnull writeonly align 8 dereferenceable(1484) %this, i32 noundef %index, i1 noundef zeroext %onOff) local_unnamed_addr #14 align 2 {
entry:
  %frombool = zext i1 %onOff to i8
  %cmp = icmp slt i32 %index, 3
  br i1 %cmp, label %if.then, label %if.else

if.then:                                          ; preds = %entry
  %m_enableSpring = getelementptr inbounds i8, ptr %this, i64 822
  %idxprom = sext i32 %index to i64
  %arrayidx = getelementptr inbounds [3 x i8], ptr %m_enableSpring, i64 0, i64 %idxprom
  store i8 %frombool, ptr %arrayidx, align 1
  br label %if.end

if.else:                                          ; preds = %entry
  %m_angularLimits = getelementptr inbounds i8, ptr %this, i64 992
  %sub = add nsw i32 %index, -3
  %idxprom4 = zext nneg i32 %sub to i64
  %m_enableSpring6 = getelementptr inbounds [3 x %class.btRotationalLimitMotor2], ptr %m_angularLimits, i64 0, i64 %idxprom4, i32 12
  store i8 %frombool, ptr %m_enableSpring6, align 8
  br label %if.end

if.end:                                           ; preds = %if.else, %if.then
  ret void
}